; Function Attrs: nounwind sspstrong uwtable
define internal range(i64 0, 21) i64 @addrinfo_ipv6_linklocal_p(i64 noundef %0) #0 {
  %2 = tail call ptr @rb_check_typeddata(i64 noundef %0, ptr noundef nonnull @addrinfo_type) #21
  %.not.i.i = icmp eq ptr %2, null
  br i1 %.not.i.i, label %3, label %get_addrinfo.exit.i

3:                                                ; preds = %1
  %4 = load i64, ptr @rb_eTypeError, align 8, !tbaa !35
  tail call void (i64, ptr, ...) @rb_raise(i64 noundef %4, ptr noundef nonnull @.str.101) #23
  unreachable

get_addrinfo.exit.i:                              ; preds = %1
  %5 = getelementptr inbounds nuw i8, ptr %2, i64 28
  %6 = load i32, ptr %5, align 4, !tbaa !118
  %7 = icmp ugt i32 %6, 1
  br i1 %7, label %ai_get_afamily.exit.i, label %extract_in6_addr.exit.thread

ai_get_afamily.exit.i:                            ; preds = %get_addrinfo.exit.i
  %8 = getelementptr inbounds nuw i8, ptr %2, i64 32
  %9 = load i16, ptr %8, align 2, !tbaa !91
  %.fr.i = freeze i16 %9
  %.not.i = icmp eq i16 %.fr.i, 10
  br i1 %.not.i, label %extract_in6_addr.exit, label %extract_in6_addr.exit.thread

extract_in6_addr.exit:                            ; preds = %ai_get_afamily.exit.i
  %10 = getelementptr inbounds nuw i8, ptr %2, i64 40
  %11 = load i32, ptr %10, align 4, !tbaa !49
  %12 = and i32 %11, 49407
  %13 = icmp eq i32 %12, 33022
  br i1 %13, label %14, label %extract_in6_addr.exit.thread

extract_in6_addr.exit.thread:                     ; preds = %ai_get_afamily.exit.i, %get_addrinfo.exit.i, %extract_in6_addr.exit
  br label %14

14:                                               ; preds = %extract_in6_addr.exit, %extract_in6_addr.exit.thread
  %.0 = phi i64 [ 0, %extract_in6_addr.exit.thread ], [ 20, %extract_in6_addr.exit ]
  ret i64 %.0
}